target datalayout = "e-m:e-p270:32:32-p271:32:32-p272:64:64-i64:64-i128:128-f80:128-n8:16:32:64-S128"
target triple = "x86_64-pc-linux-gnu"

@testctx = internal global ptr null, align 8
@.str.18 = private unnamed_addr constant [33 x i8] c"../openssl/test/evp_extra_test.c\00", align 1
@lgcyprov = internal global ptr null, align 8
@.str.112 = private unnamed_addr constant [2 x i8] c"0\00", align 1
@testpropq = internal global ptr null, align 8
@.str.548 = private unnamed_addr constant [5 x i8] c"type\00", align 1
@.str.549 = private unnamed_addr constant [29 x i8] c"(ctx = EVP_CIPHER_CTX_new())\00", align 1
@.str.550 = private unnamed_addr constant [50 x i8] c"EVP_EncryptInit_ex(ctx, type, NULL, key, init_iv)\00", align 1
@.str.551 = private unnamed_addr constant [64 x i8] c"EVP_EncryptUpdate(ctx, ciphertext, &len, msg, (int)sizeof(msg))\00", align 1
@.str.552 = private unnamed_addr constant [54 x i8] c"EVP_CIPHER_CTX_get_original_iv(ctx, oiv, sizeof(oiv))\00", align 1
@.str.553 = private unnamed_addr constant [51 x i8] c"EVP_CIPHER_CTX_get_updated_iv(ctx, iv, sizeof(iv))\00", align 1
@.str.554 = private unnamed_addr constant [43 x i8] c"EVP_EncryptFinal_ex(ctx, ciphertext, &len)\00", align 1
@.str.555 = private unnamed_addr constant [6 x i8] c"ivlen\00", align 1
@.str.556 = private unnamed_addr constant [8 x i8] c"init_iv\00", align 1
@.str.557 = private unnamed_addr constant [4 x i8] c"oiv\00", align 1
@.str.558 = private unnamed_addr constant [7 x i8] c"ref_iv\00", align 1
@.str.559 = private unnamed_addr constant [3 x i8] c"iv\00", align 1
@.str.560 = private unnamed_addr constant [48 x i8] c"EVP_EncryptInit_ex(ctx, NULL, NULL, NULL, NULL)\00", align 1
@test_evp_iv_des.key = internal constant [24 x i8] c"\01#Eg\89\AB\CD\EF\F1\E0\D3\C2\B5\A4\97\86\FE\DC\BA\98vT2\10", align 16
@test_evp_iv_des.init_iv = internal constant [8 x i8] c"\FE\DC\BA\98vT2\10", align 1
@test_evp_iv_des.msg = internal constant [16 x i8] c"\01\02\03\04\05\06\07\08\09\0A\0B\0C\0D\0E\0F\10", align 16
@test_evp_iv_des.cbc_state_des = internal constant [8 x i8] c"O\A3\85\CD\8B\F3\06*", align 1
@test_evp_iv_des.cbc_state_3des = internal constant [8 x i8] c"5'}el\FBP\D9", align 1
@test_evp_iv_des.ofb_state_des = internal constant [8 x i8] c"\A7\0D\1DE\F9\96?,", align 1
@test_evp_iv_des.ofb_state_3des = internal constant [8 x i8] c"\AB\16$\BB[\AC\ED^", align 1
@test_evp_iv_des.cfb_state_des = internal constant [8 x i8] c"\91\EBm)K\08\BDs", align 1
@test_evp_iv_des.cfb_state_3des = internal constant [8 x i8] c"4\DD\FBG3\1Ca\F7", align 1
@.str.561 = private unnamed_addr constant [43 x i8] c"Test requires legacy provider to be loaded\00", align 1
@.str.562 = private unnamed_addr constant [8 x i8] c"des-cbc\00", align 1
@.str.563 = private unnamed_addr constant [8 x i8] c"des-ofb\00", align 1
@.str.564 = private unnamed_addr constant [8 x i8] c"des-cfb\00", align 1
@.str.565 = private unnamed_addr constant [13 x i8] c"des-ede3-cbc\00", align 1
@.str.566 = private unnamed_addr constant [13 x i8] c"des-ede3-ofb\00", align 1
@.str.567 = private unnamed_addr constant [13 x i8] c"des-ede3-cfb\00", align 1

; Function Attrs: nounwind uwtable
define internal i32 @test_evp_iv_des(i32 noundef %0) #0 {
  %2 = alloca i32, align 4
  %3 = alloca i32, align 4
  %4 = alloca i32, align 4
  %5 = alloca ptr, align 8
  %6 = alloca [32 x i8], align 16
  %7 = alloca [8 x i8], align 1
  %8 = alloca [8 x i8], align 1
  %9 = alloca ptr, align 8
  %10 = alloca i32, align 4
  %11 = alloca i64, align 8
  %12 = alloca i64, align 8
  %13 = alloca ptr, align 8
  %14 = alloca i32, align 4
  store i32 %0, ptr %3, align 4, !tbaa !9
  call void @llvm.lifetime.start.p0(i64 4, ptr %4) #8
  store i32 0, ptr %4, align 4, !tbaa !9
  call void @llvm.lifetime.start.p0(i64 8, ptr %5) #8
  store ptr null, ptr %5, align 8, !tbaa !39
  call void @llvm.lifetime.start.p0(i64 32, ptr %6) #8
  call void @llvm.lifetime.start.p0(i64 8, ptr %7) #8
  call void @llvm.lifetime.start.p0(i64 8, ptr %8) #8
  call void @llvm.lifetime.start.p0(i64 8, ptr %9) #8
  call void @llvm.lifetime.start.p0(i64 4, ptr %10) #8
  store i32 32, ptr %10, align 4, !tbaa !9
  call void @llvm.lifetime.start.p0(i64 8, ptr %11) #8
  call void @llvm.lifetime.start.p0(i64 8, ptr %12) #8
  call void @llvm.lifetime.start.p0(i64 8, ptr %13) #8
  store ptr null, ptr %13, align 8, !tbaa !41
  %15 = load ptr, ptr @lgcyprov, align 8, !tbaa !13
  %16 = icmp eq ptr %15, null
  br i1 %16, label %17, label %22

17:                                               ; preds = %1
  %18 = load i32, ptr %3, align 4, !tbaa !9
  %19 = icmp slt i32 %18, 3
  br i1 %19, label %20, label %22

20:                                               ; preds = %17
  %21 = call i32 (ptr, i32, ptr, ...) @test_skip(ptr noundef @.str.18, i32 noundef 4328, ptr noundef @.str.561)
  store i32 %21, ptr %2, align 4
  store i32 1, ptr %14, align 4
  br label %149

22:                                               ; preds = %17, %1
  %23 = load i32, ptr %3, align 4, !tbaa !9
  switch i32 %23, label %48 [
    i32 0, label %24
    i32 1, label %28
    i32 2, label %32
    i32 3, label %36
    i32 4, label %40
    i32 5, label %44
  ]

24:                                               ; preds = %22
  %25 = load ptr, ptr @testctx, align 8, !tbaa !11
  %26 = load ptr, ptr @testpropq, align 8, !tbaa !4
  %27 = call ptr @EVP_CIPHER_fetch(ptr noundef %25, ptr noundef @.str.562, ptr noundef %26)
  store ptr %27, ptr %13, align 8, !tbaa !41
  store ptr @test_evp_iv_des.cbc_state_des, ptr %9, align 8, !tbaa !4
  store i64 8, ptr %12, align 8, !tbaa !23
  br label %49

28:                                               ; preds = %22
  %29 = load ptr, ptr @testctx, align 8, !tbaa !11
  %30 = load ptr, ptr @testpropq, align 8, !tbaa !4
  %31 = call ptr @EVP_CIPHER_fetch(ptr noundef %29, ptr noundef @.str.563, ptr noundef %30)
  store ptr %31, ptr %13, align 8, !tbaa !41
  store ptr @test_evp_iv_des.ofb_state_des, ptr %9, align 8, !tbaa !4
  store i64 8, ptr %12, align 8, !tbaa !23
  br label %49

32:                                               ; preds = %22
  %33 = load ptr, ptr @testctx, align 8, !tbaa !11
  %34 = load ptr, ptr @testpropq, align 8, !tbaa !4
  %35 = call ptr @EVP_CIPHER_fetch(ptr noundef %33, ptr noundef @.str.564, ptr noundef %34)
  store ptr %35, ptr %13, align 8, !tbaa !41
  store ptr @test_evp_iv_des.cfb_state_des, ptr %9, align 8, !tbaa !4
  store i64 8, ptr %12, align 8, !tbaa !23
  br label %49

36:                                               ; preds = %22
  %37 = load ptr, ptr @testctx, align 8, !tbaa !11
  %38 = load ptr, ptr @testpropq, align 8, !tbaa !4
  %39 = call ptr @EVP_CIPHER_fetch(ptr noundef %37, ptr noundef @.str.565, ptr noundef %38)
  store ptr %39, ptr %13, align 8, !tbaa !41
  store ptr @test_evp_iv_des.cbc_state_3des, ptr %9, align 8, !tbaa !4
  store i64 8, ptr %12, align 8, !tbaa !23
  br label %49

40:                                               ; preds = %22
  %41 = load ptr, ptr @testctx, align 8, !tbaa !11
  %42 = load ptr, ptr @testpropq, align 8, !tbaa !4
  %43 = call ptr @EVP_CIPHER_fetch(ptr noundef %41, ptr noundef @.str.566, ptr noundef %42)
  store ptr %43, ptr %13, align 8, !tbaa !41
  store ptr @test_evp_iv_des.ofb_state_3des, ptr %9, align 8, !tbaa !4
  store i64 8, ptr %12, align 8, !tbaa !23
  br label %49

44:                                               ; preds = %22
  %45 = load ptr, ptr @testctx, align 8, !tbaa !11
  %46 = load ptr, ptr @testpropq, align 8, !tbaa !4
  %47 = call ptr @EVP_CIPHER_fetch(ptr noundef %45, ptr noundef @.str.567, ptr noundef %46)
  store ptr %47, ptr %13, align 8, !tbaa !41
  store ptr @test_evp_iv_des.cfb_state_3des, ptr %9, align 8, !tbaa !4
  store i64 8, ptr %12, align 8, !tbaa !23
  br label %49

48:                                               ; preds = %22
  store i32 0, ptr %2, align 4
  store i32 1, ptr %14, align 4
  br label %149

49:                                               ; preds = %44, %40, %36, %32, %28, %24
  %50 = load ptr, ptr %13, align 8, !tbaa !41
  %51 = call i32 @test_ptr(ptr noundef @.str.18, i32 noundef 4365, ptr noundef @.str.548, ptr noundef %50)
  %52 = icmp ne i32 %51, 0
  br i1 %52, label %53, label %97

53:                                               ; preds = %49
  %54 = call ptr @EVP_CIPHER_CTX_new()
  store ptr %54, ptr %5, align 8, !tbaa !39
  %55 = call i32 @test_ptr(ptr noundef @.str.18, i32 noundef 4366, ptr noundef @.str.549, ptr noundef %54)
  %56 = icmp ne i32 %55, 0
  br i1 %56, label %57, label %97

57:                                               ; preds = %53
  %58 = load ptr, ptr %5, align 8, !tbaa !39
  %59 = load ptr, ptr %13, align 8, !tbaa !41
  %60 = call i32 @EVP_EncryptInit_ex(ptr noundef %58, ptr noundef %59, ptr noundef null, ptr noundef @test_evp_iv_des.key, ptr noundef @test_evp_iv_des.init_iv)
  %61 = icmp ne i32 %60, 0
  %62 = zext i1 %61 to i32
  %63 = call i32 @test_true(ptr noundef @.str.18, i32 noundef 4367, ptr noundef @.str.550, i32 noundef %62)
  %64 = icmp ne i32 %63, 0
  br i1 %64, label %65, label %97

65:                                               ; preds = %57
  %66 = load ptr, ptr %5, align 8, !tbaa !39
  %67 = getelementptr inbounds [32 x i8], ptr %6, i64 0, i64 0
  %68 = call i32 @EVP_EncryptUpdate(ptr noundef %66, ptr noundef %67, ptr noundef %10, ptr noundef @test_evp_iv_des.msg, i32 noundef 16)
  %69 = icmp ne i32 %68, 0
  %70 = zext i1 %69 to i32
  %71 = call i32 @test_true(ptr noundef @.str.18, i32 noundef 4369, ptr noundef @.str.551, i32 noundef %70)
  %72 = icmp ne i32 %71, 0
  br i1 %72, label %73, label %97

73:                                               ; preds = %65
  %74 = load ptr, ptr %5, align 8, !tbaa !39
  %75 = getelementptr inbounds [8 x i8], ptr %7, i64 0, i64 0
  %76 = call i32 @EVP_CIPHER_CTX_get_original_iv(ptr noundef %74, ptr noundef %75, i64 noundef 8)
  %77 = icmp ne i32 %76, 0
  %78 = zext i1 %77 to i32
  %79 = call i32 @test_true(ptr noundef @.str.18, i32 noundef 4370, ptr noundef @.str.552, i32 noundef %78)
  %80 = icmp ne i32 %79, 0
  br i1 %80, label %81, label %97

81:                                               ; preds = %73
  %82 = load ptr, ptr %5, align 8, !tbaa !39
  %83 = getelementptr inbounds [8 x i8], ptr %8, i64 0, i64 0
  %84 = call i32 @EVP_CIPHER_CTX_get_updated_iv(ptr noundef %82, ptr noundef %83, i64 noundef 8)
  %85 = icmp ne i32 %84, 0
  %86 = zext i1 %85 to i32
  %87 = call i32 @test_true(ptr noundef @.str.18, i32 noundef 4371, ptr noundef @.str.553, i32 noundef %86)
  %88 = icmp ne i32 %87, 0
  br i1 %88, label %89, label %97

89:                                               ; preds = %81
  %90 = load ptr, ptr %5, align 8, !tbaa !39
  %91 = getelementptr inbounds [32 x i8], ptr %6, i64 0, i64 0
  %92 = call i32 @EVP_EncryptFinal_ex(ptr noundef %90, ptr noundef %91, ptr noundef %10)
  %93 = icmp ne i32 %92, 0
  %94 = zext i1 %93 to i32
  %95 = call i32 @test_true(ptr noundef @.str.18, i32 noundef 4372, ptr noundef @.str.554, i32 noundef %94)
  %96 = icmp ne i32 %95, 0
  br i1 %96, label %98, label %97

97:                                               ; preds = %89, %81, %73, %65, %57, %53, %49
  br label %145

98:                                               ; preds = %89
  %99 = load ptr, ptr %5, align 8, !tbaa !39
  %100 = call i32 @EVP_CIPHER_CTX_get_iv_length(ptr noundef %99)
  %101 = sext i32 %100 to i64
  store i64 %101, ptr %11, align 8, !tbaa !23
  %102 = load i64, ptr %11, align 8, !tbaa !23
  %103 = trunc i64 %102 to i32
  %104 = call i32 @test_int_gt(ptr noundef @.str.18, i32 noundef 4376, ptr noundef @.str.555, ptr noundef @.str.112, i32 noundef %103, i32 noundef 0)
  %105 = icmp ne i32 %104, 0
  br i1 %105, label %107, label %106

106:                                              ; preds = %98
  br label %145

107:                                              ; preds = %98
  %108 = load i64, ptr %11, align 8, !tbaa !23
  %109 = getelementptr inbounds [8 x i8], ptr %7, i64 0, i64 0
  %110 = load i64, ptr %11, align 8, !tbaa !23
  %111 = call i32 @test_mem_eq(ptr noundef @.str.18, i32 noundef 4379, ptr noundef @.str.556, ptr noundef @.str.557, ptr noundef @test_evp_iv_des.init_iv, i64 noundef %108, ptr noundef %109, i64 noundef %110)
  %112 = icmp ne i32 %111, 0
  br i1 %112, label %113, label %120

113:                                              ; preds = %107
  %114 = load ptr, ptr %9, align 8, !tbaa !4
  %115 = load i64, ptr %12, align 8, !tbaa !23
  %116 = getelementptr inbounds [8 x i8], ptr %8, i64 0, i64 0
  %117 = load i64, ptr %11, align 8, !tbaa !23
  %118 = call i32 @test_mem_eq(ptr noundef @.str.18, i32 noundef 4380, ptr noundef @.str.558, ptr noundef @.str.559, ptr noundef %114, i64 noundef %115, ptr noundef %116, i64 noundef %117)
  %119 = icmp ne i32 %118, 0
  br i1 %119, label %121, label %120

120:                                              ; preds = %113, %107
  br label %145

121:                                              ; preds = %113
  %122 = load ptr, ptr %5, align 8, !tbaa !39
  %123 = call i32 @EVP_EncryptInit_ex(ptr noundef %122, ptr noundef null, ptr noundef null, ptr noundef null, ptr noundef null)
  %124 = icmp ne i32 %123, 0
  %125 = zext i1 %124 to i32
  %126 = call i32 @test_true(ptr noundef @.str.18, i32 noundef 4383, ptr noundef @.str.560, i32 noundef %125)
  %127 = icmp ne i32 %126, 0
  br i1 %127, label %128, label %136

128:                                              ; preds = %121
  %129 = load ptr, ptr %5, align 8, !tbaa !39
  %130 = getelementptr inbounds [8 x i8], ptr %8, i64 0, i64 0
  %131 = call i32 @EVP_CIPHER_CTX_get_updated_iv(ptr noundef %129, ptr noundef %130, i64 noundef 8)
  %132 = icmp ne i32 %131, 0
  %133 = zext i1 %132 to i32
  %134 = call i32 @test_true(ptr noundef @.str.18, i32 noundef 4384, ptr noundef @.str.553, i32 noundef %133)
  %135 = icmp ne i32 %134, 0
  br i1 %135, label %137, label %136

136:                                              ; preds = %128, %121
  br label %145

137:                                              ; preds = %128
  %138 = load i64, ptr %11, align 8, !tbaa !23
  %139 = getelementptr inbounds [8 x i8], ptr %8, i64 0, i64 0
  %140 = load i64, ptr %11, align 8, !tbaa !23
  %141 = call i32 @test_mem_eq(ptr noundef @.str.18, i32 noundef 4386, ptr noundef @.str.556, ptr noundef @.str.559, ptr noundef @test_evp_iv_des.init_iv, i64 noundef %138, ptr noundef %139, i64 noundef %140)
  %142 = icmp ne i32 %141, 0
  br i1 %142, label %144, label %143

143:                                              ; preds = %137
  br label %145

144:                                              ; preds = %137
  store i32 1, ptr %4, align 4, !tbaa !9
  br label %145

145:                                              ; preds = %144, %143, %136, %120, %106, %97
  %146 = load ptr, ptr %5, align 8, !tbaa !39
  call void @EVP_CIPHER_CTX_free(ptr noundef %146)
  %147 = load ptr, ptr %13, align 8, !tbaa !41
  call void @EVP_CIPHER_free(ptr noundef %147)
  %148 = load i32, ptr %4, align 4, !tbaa !9
  store i32 %148, ptr %2, align 4
  store i32 1, ptr %14, align 4
  br label %149

149:                                              ; preds = %145, %48, %20
  call void @llvm.lifetime.end.p0(i64 8, ptr %13) #8
  call void @llvm.lifetime.end.p0(i64 8, ptr %12) #8
  call void @llvm.lifetime.end.p0(i64 8, ptr %11) #8
  call void @llvm.lifetime.end.p0(i64 4, ptr %10) #8
  call void @llvm.lifetime.end.p0(i64 8, ptr %9) #8
  call void @llvm.lifetime.end.p0(i64 8, ptr %8) #8
  call void @llvm.lifetime.end.p0(i64 8, ptr %7) #8
  call void @llvm.lifetime.end.p0(i64 32, ptr %6) #8
  call void @llvm.lifetime.end.p0(i64 8, ptr %5) #8
  call void @llvm.lifetime.end.p0(i64 4, ptr %4) #8
  %150 = load i32, ptr %2, align 4
  ret i32 %150
}