; Function Attrs: nounwind uwtable
define internal i32 @test_evp_iv_des(i32 noundef %0) #1 {
  %2 = alloca [32 x i8], align 16
  %3 = alloca [8 x i8], align 1
  %4 = alloca [8 x i8], align 1
  %5 = alloca i32, align 4
  call void @llvm.lifetime.start.p0(i64 32, ptr nonnull %2) #9
  call void @llvm.lifetime.start.p0(i64 8, ptr nonnull %3) #9
  call void @llvm.lifetime.start.p0(i64 8, ptr nonnull %4) #9
  call void @llvm.lifetime.start.p0(i64 4, ptr nonnull %5) #9
  store i32 32, ptr %5, align 4, !tbaa !25
  %6 = load ptr, ptr @lgcyprov, align 8, !tbaa !11
  %7 = icmp eq ptr %6, null
  %8 = icmp slt i32 %0, 3
  %or.cond = and i1 %8, %7
  br i1 %or.cond, label %9, label %11

9:                                                ; preds = %1
  %10 = tail call i32 (ptr, i32, ptr, ...) @test_skip(ptr noundef nonnull @.str.18, i32 noundef 4328, ptr noundef nonnull @.str.561) #9
  br label %67

11:                                               ; preds = %1
  %12 = icmp ult i32 %0, 6
  br i1 %12, label %switch.lookup, label %67

switch.lookup:                                    ; preds = %11
  %13 = zext nneg i32 %0 to i64
  %switch.gep = getelementptr inbounds nuw [6 x ptr], ptr @switch.table.test_evp_iv_des, i64 0, i64 %13
  %switch.load = load ptr, ptr %switch.gep, align 8
  %14 = zext nneg i32 %0 to i64
  %switch.gep41 = getelementptr inbounds nuw [6 x ptr], ptr @switch.table.test_evp_iv_des.6, i64 0, i64 %14
  %switch.load42 = load ptr, ptr %switch.gep41, align 8
  %15 = load ptr, ptr @testctx, align 8, !tbaa !6
  %16 = tail call ptr @EVP_CIPHER_fetch(ptr noundef %15, ptr noundef nonnull %switch.load, ptr noundef null) #9
  %17 = tail call i32 @test_ptr(ptr noundef nonnull @.str.18, i32 noundef 4365, ptr noundef nonnull @.str.548, ptr noundef %16) #9
  %.not = icmp eq i32 %17, 0
  br i1 %.not, label %66, label %18

18:                                               ; preds = %switch.lookup
  %19 = tail call ptr @EVP_CIPHER_CTX_new() #9
  %20 = tail call i32 @test_ptr(ptr noundef nonnull @.str.18, i32 noundef 4366, ptr noundef nonnull @.str.549, ptr noundef %19) #9
  %.not29 = icmp eq i32 %20, 0
  br i1 %.not29, label %66, label %21

21:                                               ; preds = %18
  %22 = tail call i32 @EVP_EncryptInit_ex(ptr noundef %19, ptr noundef %16, ptr noundef null, ptr noundef nonnull @test_evp_iv_des.key, ptr noundef nonnull @test_evp_iv_des.init_iv) #9
  %23 = icmp ne i32 %22, 0
  %24 = zext i1 %23 to i32
  %25 = tail call i32 @test_true(ptr noundef nonnull @.str.18, i32 noundef 4367, ptr noundef nonnull @.str.550, i32 noundef %24) #9
  %.not30 = icmp eq i32 %25, 0
  br i1 %.not30, label %66, label %26

26:                                               ; preds = %21
  %27 = call i32 @EVP_EncryptUpdate(ptr noundef %19, ptr noundef nonnull %2, ptr noundef nonnull %5, ptr noundef nonnull @test_evp_iv_des.msg, i32 noundef 16) #9
  %28 = icmp ne i32 %27, 0
  %29 = zext i1 %28 to i32
  %30 = call i32 @test_true(ptr noundef nonnull @.str.18, i32 noundef 4369, ptr noundef nonnull @.str.551, i32 noundef %29) #9
  %.not31 = icmp eq i32 %30, 0
  br i1 %.not31, label %66, label %31

31:                                               ; preds = %26
  %32 = call i32 @EVP_CIPHER_CTX_get_original_iv(ptr noundef %19, ptr noundef nonnull %3, i64 noundef 8) #9
  %33 = icmp ne i32 %32, 0
  %34 = zext i1 %33 to i32
  %35 = call i32 @test_true(ptr noundef nonnull @.str.18, i32 noundef 4370, ptr noundef nonnull @.str.552, i32 noundef %34) #9
  %.not32 = icmp eq i32 %35, 0
  br i1 %.not32, label %66, label %36

36:                                               ; preds = %31
  %37 = call i32 @EVP_CIPHER_CTX_get_updated_iv(ptr noundef %19, ptr noundef nonnull %4, i64 noundef 8) #9
  %38 = icmp ne i32 %37, 0
  %39 = zext i1 %38 to i32
  %40 = call i32 @test_true(ptr noundef nonnull @.str.18, i32 noundef 4371, ptr noundef nonnull @.str.553, i32 noundef %39) #9
  %.not33 = icmp eq i32 %40, 0
  br i1 %.not33, label %66, label %41

41:                                               ; preds = %36
  %42 = call i32 @EVP_EncryptFinal_ex(ptr noundef %19, ptr noundef nonnull %2, ptr noundef nonnull %5) #9
  %43 = icmp ne i32 %42, 0
  %44 = zext i1 %43 to i32
  %45 = call i32 @test_true(ptr noundef nonnull @.str.18, i32 noundef 4372, ptr noundef nonnull @.str.554, i32 noundef %44) #9
  %.not34 = icmp eq i32 %45, 0
  br i1 %.not34, label %66, label %46

46:                                               ; preds = %41
  %47 = call i32 @EVP_CIPHER_CTX_get_iv_length(ptr noundef %19) #9
  %48 = sext i32 %47 to i64
  %49 = call i32 @test_int_gt(ptr noundef nonnull @.str.18, i32 noundef 4376, ptr noundef nonnull @.str.555, ptr noundef nonnull @.str.112, i32 noundef %47, i32 noundef 0) #9
  %.not35 = icmp eq i32 %49, 0
  br i1 %.not35, label %66, label %50

50:                                               ; preds = %46
  %51 = call i32 @test_mem_eq(ptr noundef nonnull @.str.18, i32 noundef 4379, ptr noundef nonnull @.str.556, ptr noundef nonnull @.str.557, ptr noundef nonnull @test_evp_iv_des.init_iv, i64 noundef %48, ptr noundef nonnull %3, i64 noundef %48) #9
  %.not36 = icmp eq i32 %51, 0
  br i1 %.not36, label %66, label %52

52:                                               ; preds = %50
  %53 = call i32 @test_mem_eq(ptr noundef nonnull @.str.18, i32 noundef 4380, ptr noundef nonnull @.str.558, ptr noundef nonnull @.str.559, ptr noundef nonnull %switch.load42, i64 noundef 8, ptr noundef nonnull %4, i64 noundef %48) #9
  %.not37 = icmp eq i32 %53, 0
  br i1 %.not37, label %66, label %54

54:                                               ; preds = %52
  %55 = call i32 @EVP_EncryptInit_ex(ptr noundef %19, ptr noundef null, ptr noundef null, ptr noundef null, ptr noundef null) #9
  %56 = icmp ne i32 %55, 0
  %57 = zext i1 %56 to i32
  %58 = call i32 @test_true(ptr noundef nonnull @.str.18, i32 noundef 4383, ptr noundef nonnull @.str.560, i32 noundef %57) #9
  %.not38 = icmp eq i32 %58, 0
  br i1 %.not38, label %66, label %59

59:                                               ; preds = %54
  %60 = call i32 @EVP_CIPHER_CTX_get_updated_iv(ptr noundef %19, ptr noundef nonnull %4, i64 noundef 8) #9
  %61 = icmp ne i32 %60, 0
  %62 = zext i1 %61 to i32
  %63 = call i32 @test_true(ptr noundef nonnull @.str.18, i32 noundef 4384, ptr noundef nonnull @.str.553, i32 noundef %62) #9
  %.not39 = icmp eq i32 %63, 0
  br i1 %.not39, label %66, label %64

64:                                               ; preds = %59
  %65 = call i32 @test_mem_eq(ptr noundef nonnull @.str.18, i32 noundef 4386, ptr noundef nonnull @.str.556, ptr noundef nonnull @.str.559, ptr noundef nonnull @test_evp_iv_des.init_iv, i64 noundef %48, ptr noundef nonnull %4, i64 noundef %48) #9
  %.not40 = icmp ne i32 %65, 0
  %spec.select = zext i1 %.not40 to i32
  br label %66

66:                                               ; preds = %64, %54, %59, %50, %52, %46, %switch.lookup, %18, %21, %26, %31, %36, %41
  %.028 = phi i32 [ 0, %59 ], [ 0, %54 ], [ 0, %52 ], [ 0, %50 ], [ 0, %46 ], [ 0, %41 ], [ 0, %36 ], [ 0, %31 ], [ 0, %26 ], [ 0, %21 ], [ 0, %18 ], [ 0, %switch.lookup ], [ %spec.select, %64 ]
  %.027 = phi ptr [ %19, %59 ], [ %19, %54 ], [ %19, %52 ], [ %19, %50 ], [ %19, %46 ], [ %19, %41 ], [ %19, %36 ], [ %19, %31 ], [ %19, %26 ], [ %19, %21 ], [ %19, %18 ], [ null, %switch.lookup ], [ %19, %64 ]
  call void @EVP_CIPHER_CTX_free(ptr noundef %.027) #9
  call void @EVP_CIPHER_free(ptr noundef %16) #9
  br label %67

67:                                               ; preds = %11, %66, %9
  %.025 = phi i32 [ %10, %9 ], [ %.028, %66 ], [ 0, %11 ]
  call void @llvm.lifetime.end.p0(i64 4, ptr nonnull %5) #9
  call void @llvm.lifetime.end.p0(i64 8, ptr nonnull %4) #9
  call void @llvm.lifetime.end.p0(i64 8, ptr nonnull %3) #9
  call void @llvm.lifetime.end.p0(i64 32, ptr nonnull %2) #9
  ret i32 %.025
}